; ModuleID = '36/304.c'
source_filename = "36/304.c"
target datalayout = "e-m:e-p270:32:32-p271:32:32-p272:64:64-i64:64-f80:128-n8:16:32:64-S128"
target triple = "x86_64-pc-linux-gnu"

@.str = private unnamed_addr constant [5 x i8] c"%s%s\00", align 1
@.str.1 = private unnamed_addr constant [3 x i8] c"NO\00", align 1
@.str.2 = private unnamed_addr constant [4 x i8] c"YES\00", align 1

; Function Attrs: noinline nounwind uwtable
define dso_local i32 @main() #0 {
  %1 = alloca i32, align 4
  %2 = alloca i32, align 4
  %3 = alloca i32, align 4
  %4 = alloca i32, align 4
  %5 = alloca i32, align 4
  %6 = alloca i32, align 4
  %7 = alloca [100 x i8], align 16
  %8 = alloca [100 x i8], align 16
  store i32 0, i32* %1, align 4
  %9 = getelementptr inbounds [100 x i8], [100 x i8]* %7, i64 0, i64 0
  %10 = getelementptr inbounds [100 x i8], [100 x i8]* %8, i64 0, i64 0
  %11 = call i32 (i8*, ...) @__isoc99_scanf(i8* getelementptr inbounds ([5 x i8], [5 x i8]* @.str, i64 0, i64 0), i8* %9, i8* %10)
  %12 = getelementptr inbounds [100 x i8], [100 x i8]* %7, i64 0, i64 0
  %13 = call i64 @strlen(i8* %12) #3
  %14 = trunc i64 %13 to i32
  store i32 %14, i32* %2, align 4
  %15 = getelementptr inbounds [100 x i8], [100 x i8]* %8, i64 0, i64 0
  %16 = call i64 @strlen(i8* %15) #3
  %17 = trunc i64 %16 to i32
  store i32 %17, i32* %3, align 4
  store i32 0, i32* %4, align 4
  br label %18

18:                                               ; preds = %65, %0
  %19 = load i32, i32* %4, align 4
  %20 = load i32, i32* %2, align 4
  %21 = sub nsw i32 %20, 1
  %22 = icmp slt i32 %19, %21
  br i1 %22, label %23, label %68

23:                                               ; preds = %18
  %24 = load i32, i32* %4, align 4
  %25 = add nsw i32 %24, 1
  store i32 %25, i32* %5, align 4
  br label %26

26:                                               ; preds = %61, %23
  %27 = load i32, i32* %5, align 4
  %28 = load i32, i32* %2, align 4
  %29 = icmp slt i32 %27, %28
  br i1 %29, label %30, label %64

30:                                               ; preds = %26
  %31 = load i32, i32* %4, align 4
  %32 = sext i32 %31 to i64
  %33 = getelementptr inbounds [100 x i8], [100 x i8]* %7, i64 0, i64 %32
  %34 = load i8, i8* %33, align 1
  %35 = sext i8 %34 to i32
  %36 = load i32, i32* %5, align 4
  %37 = sext i32 %36 to i64
  %38 = getelementptr inbounds [100 x i8], [100 x i8]* %7, i64 0, i64 %37
  %39 = load i8, i8* %38, align 1
  %40 = sext i8 %39 to i32
  %41 = icmp sgt i32 %35, %40
  br i1 %41, label %42, label %60

42:                                               ; preds = %30
  %43 = load i32, i32* %4, align 4
  %44 = sext i32 %43 to i64
  %45 = getelementptr inbounds [100 x i8], [100 x i8]* %7, i64 0, i64 %44
  %46 = load i8, i8* %45, align 1
  %47 = sext i8 %46 to i32
  store i32 %47, i32* %6, align 4
  %48 = load i32, i32* %5, align 4
  %49 = sext i32 %48 to i64
  %50 = getelementptr inbounds [100 x i8], [100 x i8]* %7, i64 0, i64 %49
  %51 = load i8, i8* %50, align 1
  %52 = load i32, i32* %4, align 4
  %53 = sext i32 %52 to i64
  %54 = getelementptr inbounds [100 x i8], [100 x i8]* %7, i64 0, i64 %53
  store i8 %51, i8* %54, align 1
  %55 = load i32, i32* %6, align 4
  %56 = trunc i32 %55 to i8
  %57 = load i32, i32* %5, align 4
  %58 = sext i32 %57 to i64
  %59 = getelementptr inbounds [100 x i8], [100 x i8]* %7, i64 0, i64 %58
  store i8 %56, i8* %59, align 1
  br label %60

60:                                               ; preds = %42, %30
  br label %61

61:                                               ; preds = %60
  %62 = load i32, i32* %5, align 4
  %63 = add nsw i32 %62, 1
  store i32 %63, i32* %5, align 4
  br label %26

64:                                               ; preds = %26
  br label %65

65:                                               ; preds = %64
  %66 = load i32, i32* %4, align 4
  %67 = add nsw i32 %66, 1
  store i32 %67, i32* %4, align 4
  br label %18

68:                                               ; preds = %18
  store i32 0, i32* %4, align 4
  br label %69

69:                                               ; preds = %116, %68
  %70 = load i32, i32* %4, align 4
  %71 = load i32, i32* %3, align 4
  %72 = sub nsw i32 %71, 1
  %73 = icmp slt i32 %70, %72
  br i1 %73, label %74, label %119

74:                                               ; preds = %69
  %75 = load i32, i32* %4, align 4
  %76 = add nsw i32 %75, 1
  store i32 %76, i32* %5, align 4
  br label %77

77:                                               ; preds = %112, %74
  %78 = load i32, i32* %5, align 4
  %79 = load i32, i32* %3, align 4
  %80 = icmp slt i32 %78, %79
  br i1 %80, label %81, label %115

81:                                               ; preds = %77
  %82 = load i32, i32* %4, align 4
  %83 = sext i32 %82 to i64
  %84 = getelementptr inbounds [100 x i8], [100 x i8]* %8, i64 0, i64 %83
  %85 = load i8, i8* %84, align 1
  %86 = sext i8 %85 to i32
  %87 = load i32, i32* %5, align 4
  %88 = sext i32 %87 to i64
  %89 = getelementptr inbounds [100 x i8], [100 x i8]* %8, i64 0, i64 %88
  %90 = load i8, i8* %89, align 1
  %91 = sext i8 %90 to i32
  %92 = icmp sgt i32 %86, %91
  br i1 %92, label %93, label %111

93:                                               ; preds = %81
  %94 = load i32, i32* %4, align 4
  %95 = sext i32 %94 to i64
  %96 = getelementptr inbounds [100 x i8], [100 x i8]* %8, i64 0, i64 %95
  %97 = load i8, i8* %96, align 1
  %98 = sext i8 %97 to i32
  store i32 %98, i32* %6, align 4
  %99 = load i32, i32* %5, align 4
  %100 = sext i32 %99 to i64
  %101 = getelementptr inbounds [100 x i8], [100 x i8]* %8, i64 0, i64 %100
  %102 = load i8, i8* %101, align 1
  %103 = load i32, i32* %4, align 4
  %104 = sext i32 %103 to i64
  %105 = getelementptr inbounds [100 x i8], [100 x i8]* %8, i64 0, i64 %104
  store i8 %102, i8* %105, align 1
  %106 = load i32, i32* %6, align 4
  %107 = trunc i32 %106 to i8
  %108 = load i32, i32* %5, align 4
  %109 = sext i32 %108 to i64
  %110 = getelementptr inbounds [100 x i8], [100 x i8]* %8, i64 0, i64 %109
  store i8 %107, i8* %110, align 1
  br label %111

111:                                              ; preds = %93, %81
  br label %112

112:                                              ; preds = %111
  %113 = load i32, i32* %5, align 4
  %114 = add nsw i32 %113, 1
  store i32 %114, i32* %5, align 4
  br label %77

115:                                              ; preds = %77
  br label %116

116:                                              ; preds = %115
  %117 = load i32, i32* %4, align 4
  %118 = add nsw i32 %117, 1
  store i32 %118, i32* %4, align 4
  br label %69

119:                                              ; preds = %69
  %120 = load i32, i32* %2, align 4
  %121 = load i32, i32* %3, align 4
  %122 = icmp ne i32 %120, %121
  br i1 %122, label %123, label %125

123:                                              ; preds = %119
  %124 = call i32 (i8*, ...) @printf(i8* getelementptr inbounds ([3 x i8], [3 x i8]* @.str.1, i64 0, i64 0))
  br label %156

125:                                              ; preds = %119
  store i32 0, i32* %4, align 4
  br label %126

126:                                              ; preds = %144, %125
  %127 = load i32, i32* %4, align 4
  %128 = load i32, i32* %2, align 4
  %129 = icmp slt i32 %127, %128
  br i1 %129, label %130, label %147

130:                                              ; preds = %126
  %131 = load i32, i32* %4, align 4
  %132 = sext i32 %131 to i64
  %133 = getelementptr inbounds [100 x i8], [100 x i8]* %7, i64 0, i64 %132
  %134 = load i8, i8* %133, align 1
  %135 = sext i8 %134 to i32
  %136 = load i32, i32* %4, align 4
  %137 = sext i32 %136 to i64
  %138 = getelementptr inbounds [100 x i8], [100 x i8]* %8, i64 0, i64 %137
  %139 = load i8, i8* %138, align 1
  %140 = sext i8 %139 to i32
  %141 = icmp ne i32 %135, %140
  br i1 %141, label %142, label %143

142:                                              ; preds = %130
  br label %147

143:                                              ; preds = %130
  br label %144

144:                                              ; preds = %143
  %145 = load i32, i32* %4, align 4
  %146 = add nsw i32 %145, 1
  store i32 %146, i32* %4, align 4
  br label %126

147:                                              ; preds = %142, %126
  %148 = load i32, i32* %4, align 4
  %149 = load i32, i32* %2, align 4
  %150 = icmp eq i32 %148, %149
  br i1 %150, label %151, label %153

151:                                              ; preds = %147
  %152 = call i32 (i8*, ...) @printf(i8* getelementptr inbounds ([4 x i8], [4 x i8]* @.str.2, i64 0, i64 0))
  br label %155

153:                                              ; preds = %147
  %154 = call i32 (i8*, ...) @printf(i8* getelementptr inbounds ([3 x i8], [3 x i8]* @.str.1, i64 0, i64 0))
  br label %155

155:                                              ; preds = %153, %151
  br label %156

156:                                              ; preds = %155, %123
  ret i32 0
}

declare dso_local i32 @__isoc99_scanf(i8*, ...) #1

; Function Attrs: nounwind readonly
declare dso_local i64 @strlen(i8*) #2

declare dso_local i32 @printf(i8*, ...) #1


!llvm.module.flags = !{!0}
!llvm.ident = !{!1}

!0 = !{i32 1, !"wchar_size", i32 4}
!1 = !{!"clang version 10.0.0-4ubuntu1 "}
